; ModuleID = 'source-C-CXX/49/1449.c'
source_filename = "source-C-CXX/49/1449.c"
target datalayout = "e-m:e-p270:32:32-p271:32:32-p272:64:64-i64:64-f80:128-n8:16:32:64-S128"
target triple = "x86_64-pc-linux-gnu"

@.str = private unnamed_addr constant [3 x i8] c"%d\00", align 1
@str = private unnamed_addr constant [3 x i8] c"12\00", align 1
@str.13 = private unnamed_addr constant [3 x i8] c"11\00", align 1
@str.14 = private unnamed_addr constant [3 x i8] c"10\00", align 1
@str.15 = private unnamed_addr constant [2 x i8] c"9\00", align 1
@str.16 = private unnamed_addr constant [2 x i8] c"8\00", align 1
@str.17 = private unnamed_addr constant [2 x i8] c"7\00", align 1
@str.18 = private unnamed_addr constant [2 x i8] c"6\00", align 1
@str.19 = private unnamed_addr constant [2 x i8] c"5\00", align 1
@str.20 = private unnamed_addr constant [2 x i8] c"4\00", align 1
@str.21 = private unnamed_addr constant [2 x i8] c"3\00", align 1
@str.22 = private unnamed_addr constant [2 x i8] c"2\00", align 1
@str.23 = private unnamed_addr constant [2 x i8] c"1\00", align 1

; Function Attrs: nofree nounwind sspstrong uwtable
define dso_local i32 @main() local_unnamed_addr #0 {
  %1 = alloca i32, align 4
  %2 = bitcast i32* %1 to i8*
  call void @llvm.lifetime.start.p0i8(i64 4, i8* nonnull %2) #4
  %3 = call i32 (i8*, ...) @__isoc99_scanf(i8* getelementptr inbounds ([3 x i8], [3 x i8]* @.str, i64 0, i64 0), i32* nonnull %1)
  %4 = load i32, i32* %1, align 4, !tbaa !5
  %5 = icmp slt i32 %4, 6
  %6 = select i1 %5, i32 6, i32 13
  %7 = sub nsw i32 %6, %4
  %8 = sub nsw i32 13, %7
  %9 = srem i32 %8, 7
  %10 = icmp eq i32 %9, 0
  br i1 %10, label %11, label %13

11:                                               ; preds = %0
  %12 = call i32 @puts(i8* nonnull dereferenceable(1) getelementptr inbounds ([2 x i8], [2 x i8]* @str.23, i64 0, i64 0))
  br label %13

13:                                               ; preds = %11, %0
  %14 = sub nsw i32 44, %7
  %15 = srem i32 %14, 7
  %16 = icmp eq i32 %15, 0
  br i1 %16, label %17, label %19

17:                                               ; preds = %13
  %18 = call i32 @puts(i8* nonnull dereferenceable(1) getelementptr inbounds ([2 x i8], [2 x i8]* @str.22, i64 0, i64 0))
  br label %19

19:                                               ; preds = %17, %13
  %20 = sub nsw i32 72, %7
  %21 = srem i32 %20, 7
  %22 = icmp eq i32 %21, 0
  br i1 %22, label %23, label %25

23:                                               ; preds = %19
  %24 = call i32 @puts(i8* nonnull dereferenceable(1) getelementptr inbounds ([2 x i8], [2 x i8]* @str.21, i64 0, i64 0))
  br label %25

25:                                               ; preds = %23, %19
  %26 = sub nsw i32 103, %7
  %27 = srem i32 %26, 7
  %28 = icmp eq i32 %27, 0
  br i1 %28, label %29, label %31

29:                                               ; preds = %25
  %30 = call i32 @puts(i8* nonnull dereferenceable(1) getelementptr inbounds ([2 x i8], [2 x i8]* @str.20, i64 0, i64 0))
  br label %31

31:                                               ; preds = %29, %25
  %32 = sub nsw i32 133, %7
  %33 = srem i32 %32, 7
  %34 = icmp eq i32 %33, 0
  br i1 %34, label %35, label %37

35:                                               ; preds = %31
  %36 = call i32 @puts(i8* nonnull dereferenceable(1) getelementptr inbounds ([2 x i8], [2 x i8]* @str.19, i64 0, i64 0))
  br label %37

37:                                               ; preds = %35, %31
  %38 = sub nsw i32 164, %7
  %39 = srem i32 %38, 7
  %40 = icmp eq i32 %39, 0
  br i1 %40, label %41, label %43

41:                                               ; preds = %37
  %42 = call i32 @puts(i8* nonnull dereferenceable(1) getelementptr inbounds ([2 x i8], [2 x i8]* @str.18, i64 0, i64 0))
  br label %43

43:                                               ; preds = %41, %37
  %44 = sub nsw i32 194, %7
  %45 = srem i32 %44, 7
  %46 = icmp eq i32 %45, 0
  br i1 %46, label %47, label %49

47:                                               ; preds = %43
  %48 = call i32 @puts(i8* nonnull dereferenceable(1) getelementptr inbounds ([2 x i8], [2 x i8]* @str.17, i64 0, i64 0))
  br label %49

49:                                               ; preds = %47, %43
  %50 = sub nsw i32 225, %7
  %51 = srem i32 %50, 7
  %52 = icmp eq i32 %51, 0
  br i1 %52, label %53, label %55

53:                                               ; preds = %49
  %54 = call i32 @puts(i8* nonnull dereferenceable(1) getelementptr inbounds ([2 x i8], [2 x i8]* @str.16, i64 0, i64 0))
  br label %55

55:                                               ; preds = %53, %49
  %56 = sub nsw i32 256, %7
  %57 = srem i32 %56, 7
  %58 = icmp eq i32 %57, 0
  br i1 %58, label %59, label %61

59:                                               ; preds = %55
  %60 = call i32 @puts(i8* nonnull dereferenceable(1) getelementptr inbounds ([2 x i8], [2 x i8]* @str.15, i64 0, i64 0))
  br label %61

61:                                               ; preds = %59, %55
  %62 = sub nsw i32 286, %7
  %63 = srem i32 %62, 7
  %64 = icmp eq i32 %63, 0
  br i1 %64, label %65, label %67

65:                                               ; preds = %61
  %66 = call i32 @puts(i8* nonnull dereferenceable(1) getelementptr inbounds ([3 x i8], [3 x i8]* @str.14, i64 0, i64 0))
  br label %67

67:                                               ; preds = %65, %61
  %68 = sub nsw i32 317, %7
  %69 = srem i32 %68, 7
  %70 = icmp eq i32 %69, 0
  br i1 %70, label %71, label %73

71:                                               ; preds = %67
  %72 = call i32 @puts(i8* nonnull dereferenceable(1) getelementptr inbounds ([3 x i8], [3 x i8]* @str.13, i64 0, i64 0))
  br label %73

73:                                               ; preds = %71, %67
  %74 = sub nsw i32 347, %7
  %75 = srem i32 %74, 7
  %76 = icmp eq i32 %75, 0
  br i1 %76, label %77, label %79

77:                                               ; preds = %73
  %78 = call i32 @puts(i8* nonnull dereferenceable(1) getelementptr inbounds ([3 x i8], [3 x i8]* @str, i64 0, i64 0))
  br label %79

79:                                               ; preds = %77, %73
  call void @llvm.lifetime.end.p0i8(i64 4, i8* nonnull %2) #4
  ret i32 0
}

; Function Attrs: argmemonly mustprogress nofree nosync nounwind willreturn
declare void @llvm.lifetime.start.p0i8(i64 immarg, i8* nocapture) #1

; Function Attrs: nofree nounwind
declare noundef i32 @__isoc99_scanf(i8* nocapture noundef readonly, ...) local_unnamed_addr #2

; Function Attrs: argmemonly mustprogress nofree nosync nounwind willreturn
declare void @llvm.lifetime.end.p0i8(i64 immarg, i8* nocapture) #1

; Function Attrs: nofree nounwind
declare noundef i32 @puts(i8* nocapture noundef readonly) local_unnamed_addr #3


!llvm.module.flags = !{!0, !1, !2, !3}
!llvm.ident = !{!4}

!0 = !{i32 1, !"wchar_size", i32 4}
!1 = !{i32 7, !"PIC Level", i32 2}
!2 = !{i32 7, !"PIE Level", i32 2}
!3 = !{i32 7, !"uwtable", i32 1}
!4 = !{!"clang version 13.0.0"}
!5 = !{!6, !6, i64 0}
!6 = !{!"int", !7, i64 0}
!7 = !{!"omnipotent char", !8, i64 0}
!8 = !{!"Simple C/C++ TBAA"}
